target datalayout = "e-m:e-p270:32:32-p271:32:32-p272:64:64-i64:64-i128:128-f80:128-n8:16:32:64-S128"
target triple = "x86_64-pc-linux-gnu"

%class.RadianceScalingRendererPlugin = type { %class.QObject, %class.RenderPlugin.base, i8, %class.QList, ptr, ptr, ptr, ptr, ptr, ptr, ptr, ptr, ptr, ptr, i32, i32, %class.MeshLabPlugin, %class.MeshLabPluginLogger }
%class.QObject = type { ptr, %class.QScopedPointer }
%class.QScopedPointer = type { ptr }
%class.RenderPlugin.base = type { ptr }
%class.QList = type { %union.anon }
%union.anon = type { %struct.QListData }
%struct.QListData = type { ptr }
%class.MeshLabPlugin = type { ptr, i8, %class.QFileInfo }
%class.QFileInfo = type { %class.QSharedDataPointer }
%class.QSharedDataPointer = type { ptr }
%class.MeshLabPluginLogger = type { ptr, ptr }
%class.QImage = type { %class.QPaintDevice, ptr }
%class.QPaintDevice = type { ptr, i16, ptr }
%class.TextureFormat = type { i32, i32, i32, i32, i32, i32, i32, i32, i32, i32 }
%class.TextureParams = type { i32, i32, i32, i32, i32, i32 }
%class.Texture2D = type { i32, %class.TextureFormat, %class.TextureParams }

; Function Attrs: mustprogress nounwind uwtable
define linkonce_odr void @_ZSt4swapIP10QImageDataENSt9enable_ifIXsr6__and_ISt6__not_ISt15__is_tuple_likeIT_EESt21is_move_constructibleIS5_ESt18is_move_assignableIS5_EEE5valueEvE4typeERS5_SE_(ptr noundef nonnull align 8 dereferenceable(8) %0, ptr noundef nonnull align 8 dereferenceable(8) %1) #4 comdat {
  %3 = alloca ptr, align 8
  %4 = alloca ptr, align 8
  %5 = alloca ptr, align 8
  store ptr %0, ptr %3, align 8
  store ptr %1, ptr %4, align 8
  %6 = load ptr, ptr %3, align 8
  %7 = load ptr, ptr %6, align 8
  store ptr %7, ptr %5, align 8
  %8 = load ptr, ptr %4, align 8
  %9 = load ptr, ptr %8, align 8
  %10 = load ptr, ptr %3, align 8
  store ptr %9, ptr %10, align 8
  %11 = load ptr, ptr %5, align 8
  %12 = load ptr, ptr %4, align 8
  store ptr %11, ptr %12, align 8
  ret void
}

; Function Attrs: mustprogress nounwind uwtable
define linkonce_odr void @_Z5qSwapIP10QImageDataEvRT_S3_(ptr noundef nonnull align 8 dereferenceable(8) %0, ptr noundef nonnull align 8 dereferenceable(8) %1) #4 comdat {
  %3 = alloca ptr, align 8
  %4 = alloca ptr, align 8
  store ptr %0, ptr %3, align 8
  store ptr %1, ptr %4, align 8
  %5 = load ptr, ptr %3, align 8
  %6 = load ptr, ptr %4, align 8
  call void @_ZSt4swapIP10QImageDataENSt9enable_ifIXsr6__and_ISt6__not_ISt15__is_tuple_likeIT_EESt21is_move_constructibleIS5_ESt18is_move_assignableIS5_EEE5valueEvE4typeERS5_SE_(ptr noundef nonnull align 8 dereferenceable(8) %5, ptr noundef nonnull align 8 dereferenceable(8) %6) #3
  ret void
}

; Function Attrs: mustprogress nounwind uwtable
define linkonce_odr void @_ZN13TextureParamsD2Ev(ptr noundef nonnull align 4 dereferenceable(24) %0) unnamed_addr #4 comdat align 2 {
  %2 = alloca ptr, align 8
  store ptr %0, ptr %2, align 8
  ret void
}

; Function Attrs: mustprogress nounwind uwtable
define linkonce_odr void @_ZN9Texture2DIhED2Ev(ptr noundef nonnull align 4 dereferenceable(68) %0) unnamed_addr #4 comdat align 2 personality ptr @__gxx_personality_v0 {
  %2 = alloca ptr, align 8
  store ptr %0, ptr %2, align 8
  %3 = load ptr, ptr %2, align 8
  %4 = getelementptr inbounds %class.Texture2D, ptr %3, i32 0, i32 0
  invoke void @glDeleteTextures(i32 noundef 1, ptr noundef %4)
          to label %5 unwind label %7

5:                                                ; preds = %1
  %6 = getelementptr inbounds %class.Texture2D, ptr %3, i32 0, i32 2
  call void @_ZN13TextureParamsD2Ev(ptr noundef nonnull align 4 dereferenceable(24) %6) #3
  ret void

7:                                                ; preds = %1
  %8 = landingpad { ptr, i32 }
          catch ptr null
  %9 = extractvalue { ptr, i32 } %8, 0
  call void @__clang_call_terminate(ptr %9) #13
  unreachable
}

; Function Attrs: mustprogress nounwind uwtable
define linkonce_odr noundef nonnull align 8 dereferenceable(32) ptr @_ZN6QImageaSEOS_(ptr noundef nonnull align 8 dereferenceable(32) %0, ptr noundef nonnull align 8 dereferenceable(32) %1) #4 comdat align 2 {
  %3 = alloca ptr, align 8
  %4 = alloca ptr, align 8
  store ptr %0, ptr %3, align 8
  store ptr %1, ptr %4, align 8
  %5 = load ptr, ptr %3, align 8
  %6 = getelementptr inbounds %class.QImage, ptr %5, i32 0, i32 1
  %7 = load ptr, ptr %4, align 8
  %8 = getelementptr inbounds %class.QImage, ptr %7, i32 0, i32 1
  call void @_Z5qSwapIP10QImageDataEvRT_S3_(ptr noundef nonnull align 8 dereferenceable(8) %6, ptr noundef nonnull align 8 dereferenceable(8) %8) #3
  ret ptr %5
}

; Function Attrs: mustprogress uwtable
define void @_ZN29RadianceScalingRendererPlugin9createLitERK7QStringi(ptr noundef nonnull align 8 dereferenceable(128) %0, ptr noundef nonnull align 8 dereferenceable(8) %1, i32 noundef %2) #5 align 2 personality ptr @__gxx_personality_v0 {
  %4 = alloca ptr, align 8
  %5 = alloca ptr, align 8
  %6 = alloca i32, align 4
  %7 = alloca %class.QImage, align 8
  %8 = alloca %class.QImage, align 8
  %9 = alloca ptr, align 8
  %10 = alloca i32, align 4
  %11 = alloca i32, align 4
  %12 = alloca %class.QImage, align 8
  %13 = alloca %class.TextureFormat, align 4
  %14 = alloca %class.TextureParams, align 4
  %15 = alloca i1, align 1
  %16 = alloca %class.TextureFormat, align 4
  %17 = alloca %class.TextureParams, align 4
  %18 = alloca i1, align 1
  store ptr %0, ptr %4, align 8
  store ptr %1, ptr %5, align 8
  store i32 %2, ptr %6, align 4
  %19 = load ptr, ptr %4, align 8
  call void @_ZN6QImageC1Ev(ptr noundef nonnull align 8 dereferenceable(32) %7) #3
  call void @_ZN6QImageC1Ev(ptr noundef nonnull align 8 dereferenceable(32) %8) #3
  %20 = load ptr, ptr %5, align 8
  %21 = invoke noundef zeroext i1 @_ZN6QImage4loadERK7QStringPKc(ptr noundef nonnull align 8 dereferenceable(32) %8, ptr noundef nonnull align 8 dereferenceable(8) %20, ptr noundef null)
          to label %22 unwind label %24

22:                                               ; preds = %3
  br i1 %21, label %28, label %23

23:                                               ; preds = %22
  store i32 1, ptr %11, align 4
  br label %106

24:                                               ; preds = %80, %44, %28, %3
  %25 = landingpad { ptr, i32 }
          cleanup
  %26 = extractvalue { ptr, i32 } %25, 0
  store ptr %26, ptr %9, align 8
  %27 = extractvalue { ptr, i32 } %25, 1
  store i32 %27, ptr %10, align 4
  br label %109

28:                                               ; preds = %22
  invoke void @_ZN9QGLWidget17convertToGLFormatERK6QImage(ptr dead_on_unwind writable sret(%class.QImage) align 8 %12, ptr noundef nonnull align 8 dereferenceable(32) %8)
          to label %29 unwind label %24

29:                                               ; preds = %28
  %30 = call noundef nonnull align 8 dereferenceable(32) ptr @_ZN6QImageaSEOS_(ptr noundef nonnull align 8 dereferenceable(32) %7, ptr noundef nonnull align 8 dereferenceable(32) %12) #3
  call void @_ZN6QImageD1Ev(ptr noundef nonnull align 8 dereferenceable(32) %12) #3
  %31 = load i32, ptr %6, align 4
  %32 = icmp eq i32 %31, 0
  br i1 %32, label %33, label %69

33:                                               ; preds = %29
  %34 = getelementptr inbounds %class.RadianceScalingRendererPlugin, ptr %19, i32 0, i32 12
  %35 = load ptr, ptr %34, align 8
  %36 = icmp ne ptr %35, null
  br i1 %36, label %37, label %44

37:                                               ; preds = %33
  %38 = getelementptr inbounds %class.RadianceScalingRendererPlugin, ptr %19, i32 0, i32 12
  %39 = load ptr, ptr %38, align 8
  %40 = icmp eq ptr %39, null
  br i1 %40, label %42, label %41

41:                                               ; preds = %37
  call void @_ZN9Texture2DIhED2Ev(ptr noundef nonnull align 4 dereferenceable(68) %39) #3
  call void @_ZdlPv(ptr noundef %39) #16
  br label %42

42:                                               ; preds = %41, %37
  %43 = getelementptr inbounds %class.RadianceScalingRendererPlugin, ptr %19, i32 0, i32 12
  store ptr null, ptr %43, align 8
  br label %44

44:                                               ; preds = %42, %33
  %45 = invoke noalias noundef nonnull ptr @_Znwm(i64 noundef 68) #15
          to label %46 unwind label %24

46:                                               ; preds = %44
  store i1 true, ptr %15, align 1
  %47 = invoke noundef i32 @_ZNK6QImage5widthEv(ptr noundef nonnull align 8 dereferenceable(32) %7)
          to label %48 unwind label %57

48:                                               ; preds = %46
  %49 = invoke noundef i32 @_ZNK6QImage6heightEv(ptr noundef nonnull align 8 dereferenceable(32) %7)
          to label %50 unwind label %57

50:                                               ; preds = %48
  invoke void @_ZN13TextureFormatC1Ejiijjjiiii(ptr noundef nonnull align 4 dereferenceable(40) %13, i32 noundef 3553, i32 noundef %47, i32 noundef %49, i32 noundef 3, i32 noundef 6408, i32 noundef 5121, i32 noundef 0, i32 noundef 0, i32 noundef 0, i32 noundef 0)
          to label %51 unwind label %57

51:                                               ; preds = %50
  invoke void @_ZN13TextureParamsC1Eiiiiii(ptr noundef nonnull align 4 dereferenceable(24) %14, i32 noundef 9729, i32 noundef 9729, i32 noundef 33071, i32 noundef 33071, i32 noundef 33071, i32 noundef 7681)
          to label %52 unwind label %57

52:                                               ; preds = %51
  %53 = invoke noundef ptr @_ZN6QImage4bitsEv(ptr noundef nonnull align 8 dereferenceable(32) %7)
          to label %54 unwind label %61

54:                                               ; preds = %52
  invoke void @_ZN9Texture2DIhEC2ERK13TextureFormatRK13TextureParamsPhi(ptr noundef nonnull align 4 dereferenceable(68) %45, ptr noundef nonnull align 4 dereferenceable(40) %13, ptr noundef nonnull align 4 dereferenceable(24) %14, ptr noundef %53, i32 noundef -1)
          to label %55 unwind label %61

55:                                               ; preds = %54
  store i1 false, ptr %15, align 1
  %56 = getelementptr inbounds %class.RadianceScalingRendererPlugin, ptr %19, i32 0, i32 12
  store ptr %45, ptr %56, align 8
  call void @_ZN13TextureParamsD2Ev(ptr noundef nonnull align 4 dereferenceable(24) %14) #3
  br label %105

57:                                               ; preds = %51, %50, %48, %46
  %58 = landingpad { ptr, i32 }
          cleanup
  %59 = extractvalue { ptr, i32 } %58, 0
  store ptr %59, ptr %9, align 8
  %60 = extractvalue { ptr, i32 } %58, 1
  store i32 %60, ptr %10, align 4
  br label %65

61:                                               ; preds = %54, %52
  %62 = landingpad { ptr, i32 }
          cleanup
  %63 = extractvalue { ptr, i32 } %62, 0
  store ptr %63, ptr %9, align 8
  %64 = extractvalue { ptr, i32 } %62, 1
  store i32 %64, ptr %10, align 4
  call void @_ZN13TextureParamsD2Ev(ptr noundef nonnull align 4 dereferenceable(24) %14) #3
  br label %65

65:                                               ; preds = %61, %57
  %66 = load i1, ptr %15, align 1
  br i1 %66, label %67, label %68

67:                                               ; preds = %65
  call void @_ZdlPv(ptr noundef %45) #16
  br label %68

68:                                               ; preds = %67, %65
  br label %109

69:                                               ; preds = %29
  %70 = getelementptr inbounds %class.RadianceScalingRendererPlugin, ptr %19, i32 0, i32 13
  %71 = load ptr, ptr %70, align 8
  %72 = icmp ne ptr %71, null
  br i1 %72, label %73, label %80

73:                                               ; preds = %69
  %74 = getelementptr inbounds %class.RadianceScalingRendererPlugin, ptr %19, i32 0, i32 13
  %75 = load ptr, ptr %74, align 8
  %76 = icmp eq ptr %75, null
  br i1 %76, label %78, label %77

77:                                               ; preds = %73
  call void @_ZN9Texture2DIhED2Ev(ptr noundef nonnull align 4 dereferenceable(68) %75) #3
  call void @_ZdlPv(ptr noundef %75) #16
  br label %78

78:                                               ; preds = %77, %73
  %79 = getelementptr inbounds %class.RadianceScalingRendererPlugin, ptr %19, i32 0, i32 13
  store ptr null, ptr %79, align 8
  br label %80

80:                                               ; preds = %78, %69
  %81 = invoke noalias noundef nonnull ptr @_Znwm(i64 noundef 68) #15
          to label %82 unwind label %24

82:                                               ; preds = %80
  store i1 true, ptr %18, align 1
  %83 = invoke noundef i32 @_ZNK6QImage5widthEv(ptr noundef nonnull align 8 dereferenceable(32) %7)
          to label %84 unwind label %93

84:                                               ; preds = %82
  %85 = invoke noundef i32 @_ZNK6QImage6heightEv(ptr noundef nonnull align 8 dereferenceable(32) %7)
          to label %86 unwind label %93

86:                                               ; preds = %84
  invoke void @_ZN13TextureFormatC1Ejiijjjiiii(ptr noundef nonnull align 4 dereferenceable(40) %16, i32 noundef 3553, i32 noundef %83, i32 noundef %85, i32 noundef 3, i32 noundef 6408, i32 noundef 5121, i32 noundef 0, i32 noundef 0, i32 noundef 0, i32 noundef 0)
          to label %87 unwind label %93

87:                                               ; preds = %86
  invoke void @_ZN13TextureParamsC1Eiiiiii(ptr noundef nonnull align 4 dereferenceable(24) %17, i32 noundef 9729, i32 noundef 9729, i32 noundef 33071, i32 noundef 33071, i32 noundef 33071, i32 noundef 7681)
          to label %88 unwind label %93

88:                                               ; preds = %87
  %89 = invoke noundef ptr @_ZN6QImage4bitsEv(ptr noundef nonnull align 8 dereferenceable(32) %7)
          to label %90 unwind label %97

90:                                               ; preds = %88
  invoke void @_ZN9Texture2DIhEC2ERK13TextureFormatRK13TextureParamsPhi(ptr noundef nonnull align 4 dereferenceable(68) %81, ptr noundef nonnull align 4 dereferenceable(40) %16, ptr noundef nonnull align 4 dereferenceable(24) %17, ptr noundef %89, i32 noundef -1)
          to label %91 unwind label %97

91:                                               ; preds = %90
  store i1 false, ptr %18, align 1
  %92 = getelementptr inbounds %class.RadianceScalingRendererPlugin, ptr %19, i32 0, i32 13
  store ptr %81, ptr %92, align 8
  call void @_ZN13TextureParamsD2Ev(ptr noundef nonnull align 4 dereferenceable(24) %17) #3
  br label %105

93:                                               ; preds = %87, %86, %84, %82
  %94 = landingpad { ptr, i32 }
          cleanup
  %95 = extractvalue { ptr, i32 } %94, 0
  store ptr %95, ptr %9, align 8
  %96 = extractvalue { ptr, i32 } %94, 1
  store i32 %96, ptr %10, align 4
  br label %101

97:                                               ; preds = %90, %88
  %98 = landingpad { ptr, i32 }
          cleanup
  %99 = extractvalue { ptr, i32 } %98, 0
  store ptr %99, ptr %9, align 8
  %100 = extractvalue { ptr, i32 } %98, 1
  store i32 %100, ptr %10, align 4
  call void @_ZN13TextureParamsD2Ev(ptr noundef nonnull align 4 dereferenceable(24) %17) #3
  br label %101

101:                                              ; preds = %97, %93
  %102 = load i1, ptr %18, align 1
  br i1 %102, label %103, label %104

103:                                              ; preds = %101
  call void @_ZdlPv(ptr noundef %81) #16
  br label %104

104:                                              ; preds = %103, %101
  br label %109

105:                                              ; preds = %91, %55
  store i32 0, ptr %11, align 4
  br label %106

106:                                              ; preds = %105, %23
  call void @_ZN6QImageD1Ev(ptr noundef nonnull align 8 dereferenceable(32) %8) #3
  call void @_ZN6QImageD1Ev(ptr noundef nonnull align 8 dereferenceable(32) %7) #3
  %107 = load i32, ptr %11, align 4
  switch i32 %107, label %115 [
    i32 0, label %108
    i32 1, label %108
  ]

108:                                              ; preds = %106, %106
  ret void

109:                                              ; preds = %104, %68, %24
  call void @_ZN6QImageD1Ev(ptr noundef nonnull align 8 dereferenceable(32) %8) #3
  call void @_ZN6QImageD1Ev(ptr noundef nonnull align 8 dereferenceable(32) %7) #3
  br label %110

110:                                              ; preds = %109
  %111 = load ptr, ptr %9, align 8
  %112 = load i32, ptr %10, align 4
  %113 = insertvalue { ptr, i32 } poison, ptr %111, 0
  %114 = insertvalue { ptr, i32 } %113, i32 %112, 1
  resume { ptr, i32 } %114

115:                                              ; preds = %106
  unreachable
}