; Function Attrs: mustprogress uwtable
define void @_ZN29RadianceScalingRendererPlugin9createLitERK7QStringi(ptr nocapture noundef nonnull align 8 dereferenceable(128) %0, ptr noundef nonnull align 8 dereferenceable(8) %1, i32 noundef %2) local_unnamed_addr #9 align 2 personality ptr @__gxx_personality_v0 {
  %4 = alloca %class.QImage, align 8
  %5 = alloca %class.QImage, align 8
  %6 = alloca %class.QImage, align 8
  %7 = alloca %class.TextureFormat, align 4
  %8 = alloca %class.TextureParams, align 4
  %9 = alloca %class.TextureFormat, align 4
  %10 = alloca %class.TextureParams, align 4
  call void @_ZN6QImageC1Ev(ptr noundef nonnull align 8 dereferenceable(32) %4) #17
  call void @_ZN6QImageC1Ev(ptr noundef nonnull align 8 dereferenceable(32) %5) #17
  %11 = invoke noundef zeroext i1 @_ZN6QImage4loadERK7QStringPKc(ptr noundef nonnull align 8 dereferenceable(32) %5, ptr noundef nonnull align 8 dereferenceable(8) %1, ptr noundef null)
          to label %12 unwind label %13

12:                                               ; preds = %3
  br i1 %11, label %15, label %70

13:                                               ; preds = %53, %29, %15, %3
  %14 = landingpad { ptr, i32 }
          cleanup
  br label %71

15:                                               ; preds = %12
  invoke void @_ZN9QGLWidget17convertToGLFormatERK6QImage(ptr dead_on_unwind nonnull writable sret(%class.QImage) align 8 %6, ptr noundef nonnull align 8 dereferenceable(32) %5)
          to label %16 unwind label %13

16:                                               ; preds = %15
  %17 = getelementptr inbounds i8, ptr %4, i64 24
  %18 = getelementptr inbounds i8, ptr %6, i64 24
  %19 = load ptr, ptr %17, align 8
  %20 = load ptr, ptr %18, align 8
  store ptr %20, ptr %17, align 8
  store ptr %19, ptr %18, align 8
  call void @_ZN6QImageD1Ev(ptr noundef nonnull align 8 dereferenceable(32) %6) #17
  %21 = icmp eq i32 %2, 0
  br i1 %21, label %22, label %46

22:                                               ; preds = %16
  %23 = getelementptr inbounds i8, ptr %0, i64 104
  %24 = load ptr, ptr %23, align 8
  %.not12 = icmp eq ptr %24, null
  br i1 %.not12, label %29, label %25

25:                                               ; preds = %22
  invoke void @glDeleteTextures(i32 noundef 1, ptr noundef nonnull %24)
          to label %_ZN9Texture2DIhED2Ev.exit unwind label %26

26:                                               ; preds = %25
  %27 = landingpad { ptr, i32 }
          catch ptr null
  %28 = extractvalue { ptr, i32 } %27, 0
  call void @__clang_call_terminate(ptr %28) #18
  unreachable

_ZN9Texture2DIhED2Ev.exit:                        ; preds = %25
  call void @_ZdlPv(ptr noundef nonnull %24) #16
  store ptr null, ptr %23, align 8
  br label %29

29:                                               ; preds = %_ZN9Texture2DIhED2Ev.exit, %22
  %30 = invoke noalias noundef nonnull dereferenceable(68) ptr @_Znwm(i64 noundef 68) #20
          to label %31 unwind label %13

31:                                               ; preds = %29
  %32 = invoke noundef i32 @_ZNK6QImage5widthEv(ptr noundef nonnull align 8 dereferenceable(32) %4)
          to label %33 unwind label %41

33:                                               ; preds = %31
  %34 = invoke noundef i32 @_ZNK6QImage6heightEv(ptr noundef nonnull align 8 dereferenceable(32) %4)
          to label %35 unwind label %41

35:                                               ; preds = %33
  invoke void @_ZN13TextureFormatC1Ejiijjjiiii(ptr noundef nonnull align 4 dereferenceable(40) %7, i32 noundef 3553, i32 noundef %32, i32 noundef %34, i32 noundef 3, i32 noundef 6408, i32 noundef 5121, i32 noundef 0, i32 noundef 0, i32 noundef 0, i32 noundef 0)
          to label %36 unwind label %41

36:                                               ; preds = %35
  invoke void @_ZN13TextureParamsC1Eiiiiii(ptr noundef nonnull align 4 dereferenceable(24) %8, i32 noundef 9729, i32 noundef 9729, i32 noundef 33071, i32 noundef 33071, i32 noundef 33071, i32 noundef 7681)
          to label %37 unwind label %41

37:                                               ; preds = %36
  %38 = invoke noundef ptr @_ZN6QImage4bitsEv(ptr noundef nonnull align 8 dereferenceable(32) %4)
          to label %39 unwind label %43

39:                                               ; preds = %37
  invoke void @_ZN9Texture2DIhEC2ERK13TextureFormatRK13TextureParamsPhi(ptr noundef nonnull align 4 dereferenceable(68) %30, ptr noundef nonnull align 4 dereferenceable(40) %7, ptr noundef nonnull align 4 dereferenceable(24) %8, ptr noundef %38, i32 noundef -1)
          to label %40 unwind label %43

40:                                               ; preds = %39
  store ptr %30, ptr %23, align 8
  br label %70

41:                                               ; preds = %36, %35, %33, %31
  %42 = landingpad { ptr, i32 }
          cleanup
  br label %45

43:                                               ; preds = %39, %37
  %44 = landingpad { ptr, i32 }
          cleanup
  br label %45

45:                                               ; preds = %41, %43
  %.pn13 = phi { ptr, i32 } [ %44, %43 ], [ %42, %41 ]
  call void @_ZdlPv(ptr noundef nonnull %30) #16
  br label %71

46:                                               ; preds = %16
  %47 = getelementptr inbounds i8, ptr %0, i64 112
  %48 = load ptr, ptr %47, align 8
  %.not = icmp eq ptr %48, null
  br i1 %.not, label %53, label %49

49:                                               ; preds = %46
  invoke void @glDeleteTextures(i32 noundef 1, ptr noundef nonnull %48)
          to label %_ZN9Texture2DIhED2Ev.exit16 unwind label %50

50:                                               ; preds = %49
  %51 = landingpad { ptr, i32 }
          catch ptr null
  %52 = extractvalue { ptr, i32 } %51, 0
  call void @__clang_call_terminate(ptr %52) #18
  unreachable

_ZN9Texture2DIhED2Ev.exit16:                      ; preds = %49
  call void @_ZdlPv(ptr noundef nonnull %48) #16
  store ptr null, ptr %47, align 8
  br label %53

53:                                               ; preds = %_ZN9Texture2DIhED2Ev.exit16, %46
  %54 = invoke noalias noundef nonnull dereferenceable(68) ptr @_Znwm(i64 noundef 68) #20
          to label %55 unwind label %13

55:                                               ; preds = %53
  %56 = invoke noundef i32 @_ZNK6QImage5widthEv(ptr noundef nonnull align 8 dereferenceable(32) %4)
          to label %57 unwind label %65

57:                                               ; preds = %55
  %58 = invoke noundef i32 @_ZNK6QImage6heightEv(ptr noundef nonnull align 8 dereferenceable(32) %4)
          to label %59 unwind label %65

59:                                               ; preds = %57
  invoke void @_ZN13TextureFormatC1Ejiijjjiiii(ptr noundef nonnull align 4 dereferenceable(40) %9, i32 noundef 3553, i32 noundef %56, i32 noundef %58, i32 noundef 3, i32 noundef 6408, i32 noundef 5121, i32 noundef 0, i32 noundef 0, i32 noundef 0, i32 noundef 0)
          to label %60 unwind label %65

60:                                               ; preds = %59
  invoke void @_ZN13TextureParamsC1Eiiiiii(ptr noundef nonnull align 4 dereferenceable(24) %10, i32 noundef 9729, i32 noundef 9729, i32 noundef 33071, i32 noundef 33071, i32 noundef 33071, i32 noundef 7681)
          to label %61 unwind label %65

61:                                               ; preds = %60
  %62 = invoke noundef ptr @_ZN6QImage4bitsEv(ptr noundef nonnull align 8 dereferenceable(32) %4)
          to label %63 unwind label %67

63:                                               ; preds = %61
  invoke void @_ZN9Texture2DIhEC2ERK13TextureFormatRK13TextureParamsPhi(ptr noundef nonnull align 4 dereferenceable(68) %54, ptr noundef nonnull align 4 dereferenceable(40) %9, ptr noundef nonnull align 4 dereferenceable(24) %10, ptr noundef %62, i32 noundef -1)
          to label %64 unwind label %67

64:                                               ; preds = %63
  store ptr %54, ptr %47, align 8
  br label %70

65:                                               ; preds = %60, %59, %57, %55
  %66 = landingpad { ptr, i32 }
          cleanup
  br label %69

67:                                               ; preds = %63, %61
  %68 = landingpad { ptr, i32 }
          cleanup
  br label %69

69:                                               ; preds = %65, %67
  %.pn = phi { ptr, i32 } [ %68, %67 ], [ %66, %65 ]
  call void @_ZdlPv(ptr noundef nonnull %54) #16
  br label %71

70:                                               ; preds = %40, %64, %12
  call void @_ZN6QImageD1Ev(ptr noundef nonnull align 8 dereferenceable(32) %5) #17
  call void @_ZN6QImageD1Ev(ptr noundef nonnull align 8 dereferenceable(32) %4) #17
  ret void

71:                                               ; preds = %69, %45, %13
  %.pn13.pn = phi { ptr, i32 } [ %.pn13, %45 ], [ %14, %13 ], [ %.pn, %69 ]
  call void @_ZN6QImageD1Ev(ptr noundef nonnull align 8 dereferenceable(32) %5) #17
  call void @_ZN6QImageD1Ev(ptr noundef nonnull align 8 dereferenceable(32) %4) #17
  resume { ptr, i32 } %.pn13.pn
}